; Function Attrs: mustprogress uwtable
define dso_local void @_ZN3net19SourceAddressTokens5ClearEv(ptr nocapture noundef nonnull align 8 dereferenceable(56) %this) unnamed_addr #1 align 2 personality ptr @__gxx_personality_v0 {
entry:
  %current_size_.i.i = getelementptr inbounds i8, ptr %this, i64 40
  %0 = load i32, ptr %current_size_.i.i, align 8
  %cmp7.i.i = icmp sgt i32 %0, 0
  br i1 %cmp7.i.i, label %if.then.i.i, label %_ZN6google8protobuf16RepeatedPtrFieldIN3net18SourceAddressTokenEE5ClearEv.exit

if.then.i.i:                                      ; preds = %entry
  %rep_.i.i = getelementptr inbounds i8, ptr %this, i64 48
  %1 = load ptr, ptr %rep_.i.i, align 8
  %elements8.i.i = getelementptr inbounds i8, ptr %1, i64 8
  %wide.trip.count.i.i = zext nneg i32 %0 to i64
  br label %do.body.i.i

do.body.i.i:                                      ; preds = %do.body.i.i, %if.then.i.i
  %indvars.iv.i.i = phi i64 [ %indvars.iv.next.i.i, %do.body.i.i ], [ 0, %if.then.i.i ]
  %indvars.iv.next.i.i = add nuw nsw i64 %indvars.iv.i.i, 1
  %arrayidx.i.i = getelementptr inbounds ptr, ptr %elements8.i.i, i64 %indvars.iv.i.i
  %2 = load ptr, ptr %arrayidx.i.i, align 8
  %vtable.i.i.i = load ptr, ptr %2, align 8
  %vfn.i.i.i = getelementptr inbounds i8, ptr %vtable.i.i.i, i64 56
  %3 = load ptr, ptr %vfn.i.i.i, align 8
  tail call void %3(ptr noundef nonnull align 8 dereferenceable(56) %2)
  %exitcond.not.i.i = icmp eq i64 %indvars.iv.next.i.i, %wide.trip.count.i.i
  br i1 %exitcond.not.i.i, label %do.end.i.i, label %do.body.i.i, !llvm.loop !8

do.end.i.i:                                       ; preds = %do.body.i.i
  store i32 0, ptr %current_size_.i.i, align 8
  br label %_ZN6google8protobuf16RepeatedPtrFieldIN3net18SourceAddressTokenEE5ClearEv.exit

_ZN6google8protobuf16RepeatedPtrFieldIN3net18SourceAddressTokenEE5ClearEv.exit: ; preds = %entry, %do.end.i.i
  %_has_bits_ = getelementptr inbounds i8, ptr %this, i64 24
  store i32 0, ptr %_has_bits_, align 8
  %_unknown_fields_ = getelementptr inbounds i8, ptr %this, i64 8
  %4 = load ptr, ptr @_ZN6google8protobuf8internal13empty_string_B5cxx11E, align 8
  %5 = load ptr, ptr %_unknown_fields_, align 8
  %cmp.i = icmp eq ptr %5, %4
  br i1 %cmp.i, label %_ZN6google8protobuf8internal14ArenaStringPtr19ClearToEmptyNoArenaEPKNSt7__cxx1112basic_stringIcSt11char_traitsIcESaIcEEE.exit, label %if.else.i

if.else.i:                                        ; preds = %_ZN6google8protobuf16RepeatedPtrFieldIN3net18SourceAddressTokenEE5ClearEv.exit
  tail call void @_ZNSt7__cxx1112basic_stringIcSt11char_traitsIcESaIcEE5clearEv(ptr noundef nonnull align 8 dereferenceable(32) %5) #14
  br label %_ZN6google8protobuf8internal14ArenaStringPtr19ClearToEmptyNoArenaEPKNSt7__cxx1112basic_stringIcSt11char_traitsIcESaIcEEE.exit

_ZN6google8protobuf8internal14ArenaStringPtr19ClearToEmptyNoArenaEPKNSt7__cxx1112basic_stringIcSt11char_traitsIcESaIcEEE.exit: ; preds = %_ZN6google8protobuf16RepeatedPtrFieldIN3net18SourceAddressTokenEE5ClearEv.exit, %if.else.i
  ret void
}